target datalayout = "e-m:e-p270:32:32-p271:32:32-p272:64:64-i64:64-i128:128-f80:128-n8:16:32:64-S128"
target triple = "x86_64-pc-linux-gnu"

%struct._wmem_tree_t = type { ptr, ptr, ptr, i32, i32, ptr }

; Function Attrs: null_pointer_is_valid sspstrong uwtable
define void @wmem_tree_destroy(ptr noundef %0, i1 noundef zeroext %1, i1 noundef zeroext %2) #0 {
  %4 = alloca ptr, align 8
  %5 = alloca i8, align 1
  %6 = alloca i8, align 1
  store ptr %0, ptr %4, align 8
  %7 = zext i1 %1 to i8
  store i8 %7, ptr %5, align 1
  %8 = zext i1 %2 to i8
  store i8 %8, ptr %6, align 1
  %9 = load ptr, ptr %4, align 8
  %10 = getelementptr inbounds nuw %struct._wmem_tree_t, ptr %9, i32 0, i32 1
  %11 = load ptr, ptr %10, align 8
  %12 = load ptr, ptr %4, align 8
  %13 = getelementptr inbounds nuw %struct._wmem_tree_t, ptr %12, i32 0, i32 2
  %14 = load ptr, ptr %13, align 8
  %15 = load i8, ptr %5, align 1, !range !6, !noundef !7
  %16 = trunc i8 %15 to i1
  %17 = load i8, ptr %6, align 1, !range !6, !noundef !7
  %18 = trunc i8 %17 to i1
  call void @free_tree_node(ptr noundef %11, ptr noundef %14, i1 noundef zeroext %16, i1 noundef zeroext %18)
  %19 = load ptr, ptr %4, align 8
  %20 = getelementptr inbounds nuw %struct._wmem_tree_t, ptr %19, i32 0, i32 0
  %21 = load ptr, ptr %20, align 8
  %22 = icmp ne ptr %21, null
  br i1 %22, label %23, label %30

23:                                               ; preds = %3
  %24 = load ptr, ptr %4, align 8
  %25 = getelementptr inbounds nuw %struct._wmem_tree_t, ptr %24, i32 0, i32 0
  %26 = load ptr, ptr %25, align 8
  %27 = load ptr, ptr %4, align 8
  %28 = getelementptr inbounds nuw %struct._wmem_tree_t, ptr %27, i32 0, i32 3
  %29 = load i32, ptr %28, align 8
  call void @wmem_unregister_callback(ptr noundef %26, i32 noundef %29)
  br label %30

30:                                               ; preds = %23, %3
  %31 = load ptr, ptr %4, align 8
  %32 = getelementptr inbounds nuw %struct._wmem_tree_t, ptr %31, i32 0, i32 1
  %33 = load ptr, ptr %32, align 8
  %34 = icmp ne ptr %33, null
  br i1 %34, label %35, label %42

35:                                               ; preds = %30
  %36 = load ptr, ptr %4, align 8
  %37 = getelementptr inbounds nuw %struct._wmem_tree_t, ptr %36, i32 0, i32 1
  %38 = load ptr, ptr %37, align 8
  %39 = load ptr, ptr %4, align 8
  %40 = getelementptr inbounds nuw %struct._wmem_tree_t, ptr %39, i32 0, i32 4
  %41 = load i32, ptr %40, align 4
  call void @wmem_unregister_callback(ptr noundef %38, i32 noundef %41)
  br label %42

42:                                               ; preds = %35, %30
  %43 = load ptr, ptr %4, align 8
  %44 = getelementptr inbounds nuw %struct._wmem_tree_t, ptr %43, i32 0, i32 0
  %45 = load ptr, ptr %44, align 8
  %46 = load ptr, ptr %4, align 8
  call void @wmem_free(ptr noundef %45, ptr noundef %46)
  ret void
}