; Function Attrs: null_pointer_is_valid sspstrong uwtable
define void @wmem_tree_destroy(ptr noundef %0, i1 noundef zeroext %1, i1 noundef zeroext %2) local_unnamed_addr #0 {
  %4 = getelementptr inbounds nuw i8, ptr %0, i64 8
  %5 = load ptr, ptr %4, align 8
  %6 = getelementptr inbounds nuw i8, ptr %0, i64 16
  %7 = load ptr, ptr %6, align 8
  tail call fastcc void @free_tree_node(ptr noundef %5, ptr noundef %7, i1 noundef zeroext %1, i1 noundef zeroext %2)
  %8 = load ptr, ptr %0, align 8
  %.not = icmp eq ptr %8, null
  br i1 %.not, label %12, label %9

9:                                                ; preds = %3
  %10 = getelementptr inbounds nuw i8, ptr %0, i64 24
  %11 = load i32, ptr %10, align 8
  tail call void @wmem_unregister_callback(ptr noundef nonnull %8, i32 noundef %11)
  br label %12

12:                                               ; preds = %9, %3
  %13 = load ptr, ptr %4, align 8
  %.not12 = icmp eq ptr %13, null
  br i1 %.not12, label %17, label %14

14:                                               ; preds = %12
  %15 = getelementptr inbounds nuw i8, ptr %0, i64 28
  %16 = load i32, ptr %15, align 4
  tail call void @wmem_unregister_callback(ptr noundef nonnull %13, i32 noundef %16)
  br label %17

17:                                               ; preds = %14, %12
  %18 = load ptr, ptr %0, align 8
  tail call void @wmem_free(ptr noundef %18, ptr noundef %0)
  ret void
}